; Function Attrs: mustprogress uwtable
define void @_ZNK2cv9Feature2D5writeERKNSt7__cxx1112basic_stringIcSt11char_traitsIcESaIcEEE(ptr noundef nonnull align 8 dereferenceable(8) %0, ptr noundef nonnull align 8 dereferenceable(32) %1) local_unnamed_addr #5 align 2 personality ptr @__gxx_personality_v0 {
  %3 = alloca %"class.cv::FileStorage", align 8
  %4 = alloca %"class.std::__cxx11::basic_string", align 8
  call void @llvm.lifetime.start.p0(i64 64, ptr nonnull %3) #20
  call void @llvm.lifetime.start.p0(i64 32, ptr nonnull %4) #20
  %5 = getelementptr inbounds nuw i8, ptr %4, i64 16
  store ptr %5, ptr %4, align 8, !tbaa !48
  %6 = getelementptr inbounds nuw i8, ptr %4, i64 8
  store i64 0, ptr %6, align 8, !tbaa !21
  store i8 0, ptr %5, align 8, !tbaa !49
  invoke void @_ZN2cv11FileStorageC1ERKNSt7__cxx1112basic_stringIcSt11char_traitsIcESaIcEEEiS8_(ptr noundef nonnull align 8 dereferenceable(64) %3, ptr noundef nonnull align 8 dereferenceable(32) %1, i32 noundef 1, ptr noundef nonnull align 8 dereferenceable(32) %4)
          to label %7 unwind label %16

7:                                                ; preds = %2
  %8 = load ptr, ptr %4, align 8, !tbaa !16
  %9 = icmp eq ptr %8, %5
  br i1 %9, label %_ZNKSt7__cxx1112basic_stringIcSt11char_traitsIcESaIcEE11_M_is_localEv.exit.thread.i.i, label %_ZNKSt7__cxx1112basic_stringIcSt11char_traitsIcESaIcEE11_M_is_localEv.exit.i.i

_ZNKSt7__cxx1112basic_stringIcSt11char_traitsIcESaIcEE11_M_is_localEv.exit.thread.i.i: ; preds = %7
  %10 = load i64, ptr %6, align 8, !tbaa !21
  %11 = icmp ult i64 %10, 16
  call void @llvm.assume(i1 %11)
  br label %_ZNSt7__cxx1112basic_stringIcSt11char_traitsIcESaIcEED2Ev.exit

_ZNKSt7__cxx1112basic_stringIcSt11char_traitsIcESaIcEE11_M_is_localEv.exit.i.i: ; preds = %7
  call void @_ZdlPv(ptr noundef %8) #21
  br label %_ZNSt7__cxx1112basic_stringIcSt11char_traitsIcESaIcEED2Ev.exit

_ZNSt7__cxx1112basic_stringIcSt11char_traitsIcESaIcEED2Ev.exit: ; preds = %_ZNKSt7__cxx1112basic_stringIcSt11char_traitsIcESaIcEE11_M_is_localEv.exit.thread.i.i, %_ZNKSt7__cxx1112basic_stringIcSt11char_traitsIcESaIcEE11_M_is_localEv.exit.i.i
  call void @llvm.lifetime.end.p0(i64 32, ptr nonnull %4) #20
  %12 = load ptr, ptr %0, align 8, !tbaa !3
  %13 = getelementptr inbounds nuw i8, ptr %12, i64 24
  %14 = load ptr, ptr %13, align 8
  invoke void %14(ptr noundef nonnull align 8 dereferenceable(8) %0, ptr noundef nonnull align 8 dereferenceable(64) %3)
          to label %15 unwind label %22

15:                                               ; preds = %_ZNSt7__cxx1112basic_stringIcSt11char_traitsIcESaIcEED2Ev.exit
  call void @_ZN2cv11FileStorageD1Ev(ptr noundef nonnull align 8 dereferenceable(64) %3) #20
  call void @llvm.lifetime.end.p0(i64 64, ptr nonnull %3) #20
  ret void

16:                                               ; preds = %2
  %17 = landingpad { ptr, i32 }
          cleanup
  %18 = load ptr, ptr %4, align 8, !tbaa !16
  %19 = icmp eq ptr %18, %5
  br i1 %19, label %_ZNKSt7__cxx1112basic_stringIcSt11char_traitsIcESaIcEE11_M_is_localEv.exit.thread.i.i6, label %_ZNKSt7__cxx1112basic_stringIcSt11char_traitsIcESaIcEE11_M_is_localEv.exit.i.i5

_ZNKSt7__cxx1112basic_stringIcSt11char_traitsIcESaIcEE11_M_is_localEv.exit.thread.i.i6: ; preds = %16
  %20 = load i64, ptr %6, align 8, !tbaa !21
  %21 = icmp ult i64 %20, 16
  call void @llvm.assume(i1 %21)
  br label %_ZNSt7__cxx1112basic_stringIcSt11char_traitsIcESaIcEED2Ev.exit7

_ZNKSt7__cxx1112basic_stringIcSt11char_traitsIcESaIcEE11_M_is_localEv.exit.i.i5: ; preds = %16
  call void @_ZdlPv(ptr noundef %18) #21
  br label %_ZNSt7__cxx1112basic_stringIcSt11char_traitsIcESaIcEED2Ev.exit7

_ZNSt7__cxx1112basic_stringIcSt11char_traitsIcESaIcEED2Ev.exit7: ; preds = %_ZNKSt7__cxx1112basic_stringIcSt11char_traitsIcESaIcEE11_M_is_localEv.exit.thread.i.i6, %_ZNKSt7__cxx1112basic_stringIcSt11char_traitsIcESaIcEE11_M_is_localEv.exit.i.i5
  call void @llvm.lifetime.end.p0(i64 32, ptr nonnull %4) #20
  br label %24

22:                                               ; preds = %_ZNSt7__cxx1112basic_stringIcSt11char_traitsIcESaIcEED2Ev.exit
  %23 = landingpad { ptr, i32 }
          cleanup
  call void @_ZN2cv11FileStorageD1Ev(ptr noundef nonnull align 8 dereferenceable(64) %3) #20
  br label %24

24:                                               ; preds = %22, %_ZNSt7__cxx1112basic_stringIcSt11char_traitsIcESaIcEED2Ev.exit7
  %.pn = phi { ptr, i32 } [ %23, %22 ], [ %17, %_ZNSt7__cxx1112basic_stringIcSt11char_traitsIcESaIcEED2Ev.exit7 ]
  call void @llvm.lifetime.end.p0(i64 64, ptr nonnull %3) #20
  resume { ptr, i32 } %.pn
}